target datalayout = "e-m:e-p270:32:32-p271:32:32-p272:64:64-i64:64-i128:128-f80:128-n8:16:32:64-S128"
target triple = "x86_64-pc-linux-gnu"

%struct.index_state = type { ptr, i32, i32, i32, i32, ptr, ptr, ptr, %struct.cache_time, i8, i32, %struct.hashmap, %struct.hashmap, %struct.object_id, ptr, ptr, ptr, ptr, ptr, ptr, ptr }
%struct.cache_time = type { i32, i32 }
%struct.hashmap = type { ptr, ptr, ptr, i32, i32, i32, i32, i8 }
%struct.object_id = type { [32 x i8], i32 }
%struct.cache_entry = type { %struct.hashmap_entry, %struct.stat_data, i32, i32, i32, i32, i32, %struct.object_id, [0 x i8] }
%struct.hashmap_entry = type { ptr, i32 }
%struct.stat_data = type { %struct.cache_time, %struct.cache_time, i32, i32, i32, i32, i32 }
%struct.repository = type { ptr, ptr, ptr, ptr, ptr, %struct.strmap, %struct.strmap, %struct.repo_path_cache, ptr, ptr, ptr, ptr, %struct.repo_settings, ptr, ptr, ptr, ptr, ptr, ptr, i32, i32, i32, ptr, ptr, i32, i32, i8 }
%struct.strmap = type { %struct.hashmap, ptr, i8 }
%struct.repo_path_cache = type { ptr, ptr, ptr, ptr, ptr, ptr, ptr }
%struct.repo_settings = type { i32, i32, i32, i32, i32, i32, i32, i32, i32, i32, i32, i32, ptr, i32, i32, i32, i32, i32, i32, i32, i64, i64, i64 }
%struct.split_index = type { %struct.object_id, ptr, ptr, ptr, ptr, i32, i32, i32, i32 }

@.str = private unnamed_addr constant [1 x i8] zeroinitializer, align 1
@.str.44 = private unnamed_addr constant [28 x i8] c"%s: cannot drop to stage #0\00", align 1
@git_gettext_enabled = external global i32, align 4

; Function Attrs: inlinehint nounwind uwtable
define internal ptr @mem_pool__ce_calloc(ptr noundef %0, i64 noundef %1) #3 {
  %3 = alloca ptr, align 8
  %4 = alloca i64, align 8
  %5 = alloca ptr, align 8
  store ptr %0, ptr %3, align 8, !tbaa !76
  store i64 %1, ptr %4, align 8, !tbaa !31
  call void @llvm.lifetime.start.p0(i64 8, ptr %5) #12
  %6 = load ptr, ptr %3, align 8, !tbaa !76
  %7 = load i64, ptr %4, align 8, !tbaa !31
  %8 = add i64 108, %7
  %9 = add i64 %8, 1
  %10 = call ptr @mem_pool_calloc(ptr noundef %6, i64 noundef 1, i64 noundef %9)
  store ptr %10, ptr %5, align 8, !tbaa !29
  %11 = load ptr, ptr %5, align 8, !tbaa !29
  %12 = getelementptr inbounds nuw %struct.cache_entry, ptr %11, i32 0, i32 4
  store i32 1, ptr %12, align 4, !tbaa !9
  %13 = load ptr, ptr %5, align 8, !tbaa !29
  call void @llvm.lifetime.end.p0(i64 8, ptr %5) #12
  ret ptr %13
}

; Function Attrs: nounwind uwtable
define internal ptr @find_mem_pool(ptr noundef %0) #0 {
  %2 = alloca ptr, align 8
  %3 = alloca ptr, align 8
  store ptr %0, ptr %2, align 8, !tbaa !4
  call void @llvm.lifetime.start.p0(i64 8, ptr %3) #12
  %4 = load ptr, ptr %2, align 8, !tbaa !4
  %5 = getelementptr inbounds nuw %struct.index_state, ptr %4, i32 0, i32 7
  %6 = load ptr, ptr %5, align 8, !tbaa !77
  %7 = icmp ne ptr %6, null
  br i1 %7, label %8, label %22

8:                                                ; preds = %1
  %9 = load ptr, ptr %2, align 8, !tbaa !4
  %10 = getelementptr inbounds nuw %struct.index_state, ptr %9, i32 0, i32 7
  %11 = load ptr, ptr %10, align 8, !tbaa !77
  %12 = getelementptr inbounds nuw %struct.split_index, ptr %11, i32 0, i32 1
  %13 = load ptr, ptr %12, align 8, !tbaa !78
  %14 = icmp ne ptr %13, null
  br i1 %14, label %15, label %22

15:                                               ; preds = %8
  %16 = load ptr, ptr %2, align 8, !tbaa !4
  %17 = getelementptr inbounds nuw %struct.index_state, ptr %16, i32 0, i32 7
  %18 = load ptr, ptr %17, align 8, !tbaa !77
  %19 = getelementptr inbounds nuw %struct.split_index, ptr %18, i32 0, i32 1
  %20 = load ptr, ptr %19, align 8, !tbaa !78
  %21 = getelementptr inbounds nuw %struct.index_state, ptr %20, i32 0, i32 17
  store ptr %21, ptr %3, align 8, !tbaa !80
  br label %25

22:                                               ; preds = %8, %1
  %23 = load ptr, ptr %2, align 8, !tbaa !4
  %24 = getelementptr inbounds nuw %struct.index_state, ptr %23, i32 0, i32 17
  store ptr %24, ptr %3, align 8, !tbaa !80
  br label %25

25:                                               ; preds = %22, %15
  %26 = load ptr, ptr %3, align 8, !tbaa !80
  %27 = load ptr, ptr %26, align 8, !tbaa !76
  %28 = icmp ne ptr %27, null
  br i1 %28, label %34, label %29

29:                                               ; preds = %25
  %30 = call ptr @xmalloc(i64 noundef 24)
  %31 = load ptr, ptr %3, align 8, !tbaa !80
  store ptr %30, ptr %31, align 8, !tbaa !76
  %32 = load ptr, ptr %3, align 8, !tbaa !80
  %33 = load ptr, ptr %32, align 8, !tbaa !76
  call void @mem_pool_init(ptr noundef %33, i64 noundef 0)
  br label %34

34:                                               ; preds = %29, %25
  %35 = load ptr, ptr %3, align 8, !tbaa !80
  %36 = load ptr, ptr %35, align 8, !tbaa !76
  call void @llvm.lifetime.end.p0(i64 8, ptr %3) #12
  ret ptr %36
}

; Function Attrs: inlinehint nounwind uwtable
define internal i32 @const_error() #3 {
  ret i32 -1
}

; Function Attrs: inlinehint nounwind uwtable
define internal ptr @_(ptr noundef %0) #3 {
  %2 = alloca ptr, align 8
  %3 = alloca ptr, align 8
  store ptr %0, ptr %3, align 8, !tbaa !11
  %4 = load ptr, ptr %3, align 8, !tbaa !11
  %5 = load i8, ptr %4, align 1, !tbaa !73
  %6 = icmp ne i8 %5, 0
  br i1 %6, label %8, label %7

7:                                                ; preds = %1
  store ptr @.str, ptr %2, align 8
  br label %16

8:                                                ; preds = %1
  %9 = load i32, ptr @git_gettext_enabled, align 4, !tbaa !9
  %10 = icmp ne i32 %9, 0
  br i1 %10, label %13, label %11

11:                                               ; preds = %8
  %12 = load ptr, ptr %3, align 8, !tbaa !11
  store ptr %12, ptr %2, align 8
  br label %16

13:                                               ; preds = %8
  %14 = load ptr, ptr %3, align 8, !tbaa !11
  %15 = call ptr @dcgettext(ptr noundef null, ptr noundef %14, i32 noundef 5) #12
  store ptr %15, ptr %2, align 8
  br label %16

16:                                               ; preds = %13, %11, %7
  %17 = load ptr, ptr %2, align 8
  ret ptr %17
}

; Function Attrs: inlinehint nounwind uwtable
define internal i32 @create_ce_flags(i32 noundef %0) #3 {
  %2 = alloca i32, align 4
  store i32 %0, ptr %2, align 4, !tbaa !9
  %3 = load i32, ptr %2, align 4, !tbaa !9
  %4 = shl i32 %3, 12
  ret i32 %4
}

; Function Attrs: nounwind uwtable
define dso_local ptr @make_empty_cache_entry(ptr noundef %0, i64 noundef %1) #0 {
  %3 = alloca ptr, align 8
  %4 = alloca i64, align 8
  store ptr %0, ptr %3, align 8, !tbaa !4
  store i64 %1, ptr %4, align 8, !tbaa !31
  %5 = load ptr, ptr %3, align 8, !tbaa !4
  %6 = call ptr @find_mem_pool(ptr noundef %5)
  %7 = load i64, ptr %4, align 8, !tbaa !31
  %8 = call ptr @mem_pool__ce_calloc(ptr noundef %6, i64 noundef %7)
  ret ptr %8
}

; Function Attrs: nounwind uwtable
define dso_local i32 @repo_read_index_unmerged(ptr noundef %0) #0 {
  %2 = alloca i32, align 4
  %3 = alloca ptr, align 8
  %4 = alloca ptr, align 8
  %5 = alloca i32, align 4
  %6 = alloca i32, align 4
  %7 = alloca ptr, align 8
  %8 = alloca ptr, align 8
  %9 = alloca i32, align 4
  %10 = alloca i32, align 4
  store ptr %0, ptr %3, align 8, !tbaa !48
  call void @llvm.lifetime.start.p0(i64 8, ptr %4) #12
  call void @llvm.lifetime.start.p0(i64 4, ptr %5) #12
  call void @llvm.lifetime.start.p0(i64 4, ptr %6) #12
  store i32 0, ptr %6, align 4, !tbaa !9
  %11 = load ptr, ptr %3, align 8, !tbaa !48
  %12 = call i32 @repo_read_index(ptr noundef %11)
  %13 = load ptr, ptr %3, align 8, !tbaa !48
  %14 = getelementptr inbounds nuw %struct.repository, ptr %13, i32 0, i32 15
  %15 = load ptr, ptr %14, align 8, !tbaa !88
  store ptr %15, ptr %4, align 8, !tbaa !4
  store i32 0, ptr %5, align 4, !tbaa !9
  br label %16

16:                                               ; preds = %80, %1
  %17 = load i32, ptr %5, align 4, !tbaa !9
  %18 = load ptr, ptr %4, align 8, !tbaa !4
  %19 = getelementptr inbounds nuw %struct.index_state, ptr %18, i32 0, i32 2
  %20 = load i32, ptr %19, align 4, !tbaa !34
  %21 = icmp ult i32 %17, %20
  br i1 %21, label %22, label %83

22:                                               ; preds = %16
  call void @llvm.lifetime.start.p0(i64 8, ptr %7) #12
  %23 = load ptr, ptr %4, align 8, !tbaa !4
  %24 = getelementptr inbounds nuw %struct.index_state, ptr %23, i32 0, i32 0
  %25 = load ptr, ptr %24, align 8, !tbaa !13
  %26 = load i32, ptr %5, align 4, !tbaa !9
  %27 = sext i32 %26 to i64
  %28 = getelementptr inbounds ptr, ptr %25, i64 %27
  %29 = load ptr, ptr %28, align 8, !tbaa !29
  store ptr %29, ptr %7, align 8, !tbaa !29
  call void @llvm.lifetime.start.p0(i64 8, ptr %8) #12
  call void @llvm.lifetime.start.p0(i64 4, ptr %9) #12
  %30 = load ptr, ptr %7, align 8, !tbaa !29
  %31 = getelementptr inbounds nuw %struct.cache_entry, ptr %30, i32 0, i32 3
  %32 = load i32, ptr %31, align 8, !tbaa !9
  %33 = and i32 12288, %32
  %34 = lshr i32 %33, 12
  %35 = icmp ne i32 %34, 0
  br i1 %35, label %37, label %36

36:                                               ; preds = %22
  store i32 4, ptr %10, align 4
  br label %77

37:                                               ; preds = %22
  store i32 1, ptr %6, align 4, !tbaa !9
  %38 = load ptr, ptr %7, align 8, !tbaa !29
  %39 = getelementptr inbounds nuw %struct.cache_entry, ptr %38, i32 0, i32 5
  %40 = load i32, ptr %39, align 8, !tbaa !9
  store i32 %40, ptr %9, align 4, !tbaa !9
  %41 = load ptr, ptr %4, align 8, !tbaa !4
  %42 = load i32, ptr %9, align 4, !tbaa !9
  %43 = sext i32 %42 to i64
  %44 = call ptr @make_empty_cache_entry(ptr noundef %41, i64 noundef %43)
  store ptr %44, ptr %8, align 8, !tbaa !29
  %45 = load ptr, ptr %8, align 8, !tbaa !29
  %46 = getelementptr inbounds nuw %struct.cache_entry, ptr %45, i32 0, i32 8
  %47 = getelementptr inbounds [0 x i8], ptr %46, i64 0, i64 0
  %48 = load ptr, ptr %7, align 8, !tbaa !29
  %49 = getelementptr inbounds nuw %struct.cache_entry, ptr %48, i32 0, i32 8
  %50 = getelementptr inbounds [0 x i8], ptr %49, i64 0, i64 0
  %51 = load i32, ptr %9, align 4, !tbaa !9
  %52 = sext i32 %51 to i64
  call void @llvm.memcpy.p0.p0.i64(ptr align 4 %47, ptr align 4 %50, i64 %52, i1 false)
  %53 = call i32 @create_ce_flags(i32 noundef 0)
  %54 = or i32 %53, 8388608
  %55 = load ptr, ptr %8, align 8, !tbaa !29
  %56 = getelementptr inbounds nuw %struct.cache_entry, ptr %55, i32 0, i32 3
  store i32 %54, ptr %56, align 8, !tbaa !9
  %57 = load i32, ptr %9, align 4, !tbaa !9
  %58 = load ptr, ptr %8, align 8, !tbaa !29
  %59 = getelementptr inbounds nuw %struct.cache_entry, ptr %58, i32 0, i32 5
  store i32 %57, ptr %59, align 8, !tbaa !9
  %60 = load ptr, ptr %7, align 8, !tbaa !29
  %61 = getelementptr inbounds nuw %struct.cache_entry, ptr %60, i32 0, i32 2
  %62 = load i32, ptr %61, align 4, !tbaa !9
  %63 = load ptr, ptr %8, align 8, !tbaa !29
  %64 = getelementptr inbounds nuw %struct.cache_entry, ptr %63, i32 0, i32 2
  store i32 %62, ptr %64, align 4, !tbaa !9
  %65 = load ptr, ptr %4, align 8, !tbaa !4
  %66 = load ptr, ptr %8, align 8, !tbaa !29
  %67 = call i32 @add_index_entry(ptr noundef %65, ptr noundef %66, i32 noundef 4)
  %68 = icmp ne i32 %67, 0
  br i1 %68, label %69, label %76

69:                                               ; preds = %37
  %70 = call ptr @_(ptr noundef @.str.44)
  %71 = load ptr, ptr %8, align 8, !tbaa !29
  %72 = getelementptr inbounds nuw %struct.cache_entry, ptr %71, i32 0, i32 8
  %73 = getelementptr inbounds [0 x i8], ptr %72, i64 0, i64 0
  %74 = call i32 (ptr, ...) @error(ptr noundef %70, ptr noundef %73)
  %75 = call i32 @const_error()
  store i32 %75, ptr %2, align 4
  store i32 1, ptr %10, align 4
  br label %77

76:                                               ; preds = %37
  store i32 0, ptr %10, align 4
  br label %77

77:                                               ; preds = %76, %69, %36
  call void @llvm.lifetime.end.p0(i64 4, ptr %9) #12
  call void @llvm.lifetime.end.p0(i64 8, ptr %8) #12
  call void @llvm.lifetime.end.p0(i64 8, ptr %7) #12
  %78 = load i32, ptr %10, align 4
  switch i32 %78, label %85 [
    i32 0, label %79
    i32 4, label %80
  ]

79:                                               ; preds = %77
  br label %80

80:                                               ; preds = %79, %77
  %81 = load i32, ptr %5, align 4, !tbaa !9
  %82 = add nsw i32 %81, 1
  store i32 %82, ptr %5, align 4, !tbaa !9
  br label %16, !llvm.loop !205

83:                                               ; preds = %16
  %84 = load i32, ptr %6, align 4, !tbaa !9
  store i32 %84, ptr %2, align 4
  store i32 1, ptr %10, align 4
  br label %85

85:                                               ; preds = %83, %77
  call void @llvm.lifetime.end.p0(i64 4, ptr %6) #12
  call void @llvm.lifetime.end.p0(i64 4, ptr %5) #12
  call void @llvm.lifetime.end.p0(i64 8, ptr %4) #12
  %86 = load i32, ptr %2, align 4
  ret i32 %86
}