; Function Attrs: nounwind uwtable
define dso_local range(i32 -1, 2) i32 @repo_read_index_unmerged(ptr noundef %0) local_unnamed_addr #0 {
  %2 = tail call i32 @repo_read_index(ptr noundef %0) #30
  %3 = getelementptr inbounds nuw i8, ptr %0, i64 384
  %4 = load ptr, ptr %3, align 8, !tbaa !82
  %5 = getelementptr inbounds nuw i8, ptr %4, i64 12
  %6 = load i32, ptr %5, align 4, !tbaa !34
  %.not35 = icmp eq i32 %6, 0
  br i1 %.not35, label %.loopexit, label %.lr.ph

.lr.ph:                                           ; preds = %1
  %7 = getelementptr inbounds nuw i8, ptr %4, i64 40
  br label %8

8:                                                ; preds = %.lr.ph, %47
  %9 = phi i32 [ %6, %.lr.ph ], [ %48, %47 ]
  %indvars.iv = phi i64 [ 0, %.lr.ph ], [ %indvars.iv.next, %47 ]
  %.02633 = phi i32 [ 0, %.lr.ph ], [ %.127.ph, %47 ]
  %10 = load ptr, ptr %4, align 8, !tbaa !4
  %11 = getelementptr inbounds nuw ptr, ptr %10, i64 %indvars.iv
  %12 = load ptr, ptr %11, align 8, !tbaa !25
  %13 = getelementptr inbounds nuw i8, ptr %12, i64 56
  %14 = load i32, ptr %13, align 8, !tbaa !32
  %15 = and i32 %14, 12288
  %.not = icmp eq i32 %15, 0
  br i1 %.not, label %47, label %16

16:                                               ; preds = %8
  %17 = getelementptr inbounds nuw i8, ptr %12, i64 64
  %18 = load i32, ptr %17, align 8, !tbaa !32
  %19 = sext i32 %18 to i64
  %20 = load ptr, ptr %7, align 8, !tbaa !27
  %.not.i.i = icmp eq ptr %20, null
  br i1 %.not.i.i, label %24, label %21

21:                                               ; preds = %16
  %22 = getelementptr inbounds nuw i8, ptr %20, i64 40
  %23 = load ptr, ptr %22, align 8, !tbaa !28
  %.not10.i.i = icmp eq ptr %23, null
  br i1 %.not10.i.i, label %24, label %25

24:                                               ; preds = %21, %16
  br label %25

25:                                               ; preds = %24, %21
  %.pn.i.i = phi ptr [ %4, %24 ], [ %23, %21 ]
  %.0.i.i = getelementptr inbounds nuw i8, ptr %.pn.i.i, i64 224
  %26 = load ptr, ptr %.0.i.i, align 8, !tbaa !31
  %.not11.i.i = icmp eq ptr %26, null
  br i1 %.not11.i.i, label %27, label %make_empty_cache_entry.exit

27:                                               ; preds = %25
  %28 = tail call ptr @xmalloc(i64 noundef 24) #30
  store ptr %28, ptr %.0.i.i, align 8, !tbaa !31
  tail call void @mem_pool_init(ptr noundef %28, i64 noundef 0) #30
  %.pre.i.i = load ptr, ptr %.0.i.i, align 8, !tbaa !31
  br label %make_empty_cache_entry.exit

make_empty_cache_entry.exit:                      ; preds = %25, %27
  %29 = phi ptr [ %.pre.i.i, %27 ], [ %26, %25 ]
  %30 = add nsw i64 %19, 109
  %31 = tail call ptr @mem_pool_calloc(ptr noundef %29, i64 noundef 1, i64 noundef %30) #30
  %32 = getelementptr inbounds nuw i8, ptr %31, i64 60
  store i32 1, ptr %32, align 4, !tbaa !32
  %33 = getelementptr inbounds nuw i8, ptr %31, i64 108
  %34 = getelementptr inbounds nuw i8, ptr %12, i64 108
  tail call void @llvm.memcpy.p0.p0.i64(ptr nonnull align 4 %33, ptr nonnull align 4 %34, i64 %19, i1 false)
  %35 = getelementptr inbounds nuw i8, ptr %31, i64 56
  store i32 8388608, ptr %35, align 8, !tbaa !32
  %36 = getelementptr inbounds nuw i8, ptr %31, i64 64
  store i32 %18, ptr %36, align 8, !tbaa !32
  %37 = getelementptr inbounds nuw i8, ptr %12, i64 52
  %38 = load i32, ptr %37, align 4, !tbaa !32
  %39 = getelementptr inbounds nuw i8, ptr %31, i64 52
  store i32 %38, ptr %39, align 4, !tbaa !32
  %40 = tail call i32 @add_index_entry(ptr noundef nonnull %4, ptr noundef %31, i32 noundef 4)
  %.not28 = icmp eq i32 %40, 0
  br i1 %.not28, label %make_empty_cache_entry.exit._crit_edge, label %41

make_empty_cache_entry.exit._crit_edge:           ; preds = %make_empty_cache_entry.exit
  %.pre = load i32, ptr %5, align 4, !tbaa !34
  br label %47

41:                                               ; preds = %make_empty_cache_entry.exit
  %42 = load i32, ptr @git_gettext_enabled, align 4, !tbaa !32
  %.not4.i = icmp eq i32 %42, 0
  br i1 %.not4.i, label %45, label %43

43:                                               ; preds = %41
  %44 = tail call ptr @dcgettext(ptr noundef null, ptr noundef nonnull @.str.44, i32 noundef 5) #30
  br label %45

45:                                               ; preds = %43, %41
  %.0.i = phi ptr [ %44, %43 ], [ @.str.44, %41 ]
  %46 = tail call i32 (ptr, ...) @error(ptr noundef %.0.i, ptr noundef nonnull %33) #30
  br label %.loopexit

47:                                               ; preds = %make_empty_cache_entry.exit._crit_edge, %8
  %48 = phi i32 [ %.pre, %make_empty_cache_entry.exit._crit_edge ], [ %9, %8 ]
  %.127.ph = phi i32 [ 1, %make_empty_cache_entry.exit._crit_edge ], [ %.02633, %8 ]
  %indvars.iv.next = add nuw nsw i64 %indvars.iv, 1
  %49 = zext i32 %48 to i64
  %50 = icmp samesign ult i64 %indvars.iv.next, %49
  br i1 %50, label %8, label %.loopexit, !llvm.loop !175

.loopexit:                                        ; preds = %47, %1, %45
  %.2 = phi i32 [ -1, %45 ], [ 0, %1 ], [ %.127.ph, %47 ]
  ret i32 %.2
}